target datalayout = "e-m:e-p270:32:32-p271:32:32-p272:64:64-i64:64-i128:128-f80:128-n8:16:32:64-S128"
target triple = "x86_64-unknown-linux-gnu"

%"class.cvc5::internal::prop::SatLiteral" = type { i64 }
%"struct.cvc5::internal::Minisat::Lit" = type { i32 }
%"struct.std::_Vector_base" = type { %"struct.std::_Vector_base<cvc5::internal::prop::SatLiteral, std::allocator<cvc5::internal::prop::SatLiteral>>::_Vector_impl" }
%"struct.std::_Vector_base<cvc5::internal::prop::SatLiteral, std::allocator<cvc5::internal::prop::SatLiteral>>::_Vector_impl" = type { %"struct.std::_Vector_base<cvc5::internal::prop::SatLiteral, std::allocator<cvc5::internal::prop::SatLiteral>>::_Vector_impl_data" }
%"struct.std::_Vector_base<cvc5::internal::prop::SatLiteral, std::allocator<cvc5::internal::prop::SatLiteral>>::_Vector_impl_data" = type { ptr, ptr, ptr }
%"class.cvc5::internal::Minisat::vec.280" = type { ptr, i32, i32 }

@_ZN4cvc58internal4propL15undefSatLiteralE = internal global %"class.cvc5::internal::prop::SatLiteral" zeroinitializer, align 8
@_ZN4cvc58internal7MinisatL9lit_UndefE = internal constant %"struct.cvc5::internal::Minisat::Lit" { i32 -2 }, align 4
@_ZTIN4cvc58internal7Minisat20OutOfMemoryExceptionE = linkonce_odr hidden constant { ptr, ptr } { ptr getelementptr inbounds (ptr, ptr @_ZTVN10__cxxabiv117__class_type_infoE, i64 2), ptr @_ZTSN4cvc58internal7Minisat20OutOfMemoryExceptionE }, comdat, align 8

; Function Attrs: mustprogress nounwind uwtable
define linkonce_odr hidden noundef i32 @_ZN4cvc58internal7Minisat3vecINS1_3LitEE4imaxEii(i32 noundef %x, i32 noundef %y) #4 comdat align 2 {
entry:
  %x.addr = alloca i32, align 4
  %y.addr = alloca i32, align 4
  %mask = alloca i32, align 4
  store i32 %x, ptr %x.addr, align 4
  store i32 %y, ptr %y.addr, align 4
  %0 = load i32, ptr %y.addr, align 4
  %1 = load i32, ptr %x.addr, align 4
  %sub = sub nsw i32 %0, %1
  %shr = ashr i32 %sub, 31
  store i32 %shr, ptr %mask, align 4
  %2 = load i32, ptr %x.addr, align 4
  %3 = load i32, ptr %mask, align 4
  %and = and i32 %2, %3
  %4 = load i32, ptr %y.addr, align 4
  %5 = load i32, ptr %mask, align 4
  %not = xor i32 %5, -1
  %and1 = and i32 %4, %not
  %add = add nsw i32 %and, %and1
  ret i32 %add
}

; Function Attrs: mustprogress uwtable
define linkonce_odr hidden void @_ZN4cvc58internal7Minisat3vecINS1_3LitEE8capacityEi(ptr noundef nonnull align 8 dereferenceable(16) %this, i32 noundef %min_cap) #5 comdat align 2 {
entry:
  %this.addr = alloca ptr, align 8
  %min_cap.addr = alloca i32, align 4
  %add = alloca i32, align 4
  store ptr %this, ptr %this.addr, align 8
  store i32 %min_cap, ptr %min_cap.addr, align 4
  %this1 = load ptr, ptr %this.addr, align 8
  %cap = getelementptr inbounds %"class.cvc5::internal::Minisat::vec.280", ptr %this1, i32 0, i32 2
  %0 = load i32, ptr %cap, align 4
  %1 = load i32, ptr %min_cap.addr, align 4
  %cmp = icmp sge i32 %0, %1
  br i1 %cmp, label %if.then, label %if.end

if.then:                                          ; preds = %entry
  br label %if.end18

if.end:                                           ; preds = %entry
  %2 = load i32, ptr %min_cap.addr, align 4
  %cap2 = getelementptr inbounds %"class.cvc5::internal::Minisat::vec.280", ptr %this1, i32 0, i32 2
  %3 = load i32, ptr %cap2, align 4
  %sub = sub nsw i32 %2, %3
  %add3 = add nsw i32 %sub, 1
  %and = and i32 %add3, -2
  %cap4 = getelementptr inbounds %"class.cvc5::internal::Minisat::vec.280", ptr %this1, i32 0, i32 2
  %4 = load i32, ptr %cap4, align 4
  %shr = ashr i32 %4, 1
  %add5 = add nsw i32 %shr, 2
  %and6 = and i32 %add5, -2
  %call = call noundef i32 @_ZN4cvc58internal7Minisat3vecINS1_3LitEE4imaxEii(i32 noundef %and, i32 noundef %and6)
  store i32 %call, ptr %add, align 4
  %5 = load i32, ptr %add, align 4
  %cap7 = getelementptr inbounds %"class.cvc5::internal::Minisat::vec.280", ptr %this1, i32 0, i32 2
  %6 = load i32, ptr %cap7, align 4
  %sub8 = sub nsw i32 2147483647, %6
  %cmp9 = icmp sgt i32 %5, %sub8
  br i1 %cmp9, label %if.then17, label %lor.lhs.false

lor.lhs.false:                                    ; preds = %if.end
  %data = getelementptr inbounds %"class.cvc5::internal::Minisat::vec.280", ptr %this1, i32 0, i32 0
  %7 = load ptr, ptr %data, align 8
  %8 = load i32, ptr %add, align 4
  %cap10 = getelementptr inbounds %"class.cvc5::internal::Minisat::vec.280", ptr %this1, i32 0, i32 2
  %9 = load i32, ptr %cap10, align 4
  %add11 = add nsw i32 %9, %8
  store i32 %add11, ptr %cap10, align 4
  %conv = sext i32 %add11 to i64
  %mul = mul i64 %conv, 4
  %call12 = call ptr @realloc(ptr noundef %7, i64 noundef %mul) #22
  %data13 = getelementptr inbounds %"class.cvc5::internal::Minisat::vec.280", ptr %this1, i32 0, i32 0
  store ptr %call12, ptr %data13, align 8
  %cmp14 = icmp eq ptr %call12, null
  br i1 %cmp14, label %land.lhs.true, label %if.end18

land.lhs.true:                                    ; preds = %lor.lhs.false
  %call15 = call ptr @__errno_location() #23
  %10 = load i32, ptr %call15, align 4
  %cmp16 = icmp eq i32 %10, 12
  br i1 %cmp16, label %if.then17, label %if.end18

if.then17:                                        ; preds = %land.lhs.true, %if.end
  %exception = call ptr @__cxa_allocate_exception(i64 1) #3
  call void @__cxa_throw(ptr %exception, ptr @_ZTIN4cvc58internal7Minisat20OutOfMemoryExceptionE, ptr null) #21
  unreachable

if.end18:                                         ; preds = %land.lhs.true, %lor.lhs.false, %if.then
  ret void
}

; Function Attrs: mustprogress nounwind uwtable
define linkonce_odr hidden i32 @_ZN4cvc58internal7Minisat5mkLitEib(i32 noundef %var, i1 noundef zeroext %sign) #4 comdat {
entry:
  %retval = alloca %"struct.cvc5::internal::Minisat::Lit", align 4
  %var.addr = alloca i32, align 4
  %sign.addr = alloca i8, align 1
  store i32 %var, ptr %var.addr, align 4
  %frombool = zext i1 %sign to i8
  store i8 %frombool, ptr %sign.addr, align 1
  %0 = load i32, ptr %var.addr, align 4
  %1 = load i32, ptr %var.addr, align 4
  %add = add nsw i32 %0, %1
  %2 = load i8, ptr %sign.addr, align 1
  %tobool = trunc i8 %2 to i1
  %conv = zext i1 %tobool to i32
  %add1 = add nsw i32 %add, %conv
  %x = getelementptr inbounds %"struct.cvc5::internal::Minisat::Lit", ptr %retval, i32 0, i32 0
  store i32 %add1, ptr %x, align 4
  %coerce.dive = getelementptr inbounds %"struct.cvc5::internal::Minisat::Lit", ptr %retval, i32 0, i32 0
  %3 = load i32, ptr %coerce.dive, align 4
  ret i32 %3
}

; Function Attrs: mustprogress nounwind uwtable
define linkonce_odr hidden noundef zeroext i1 @_ZNK4cvc58internal4prop10SatLiteral9isNegatedEv(ptr noundef nonnull align 8 dereferenceable(8) %this) #4 comdat align 2 {
entry:
  %this.addr = alloca ptr, align 8
  store ptr %this, ptr %this.addr, align 8
  %this1 = load ptr, ptr %this.addr, align 8
  %d_value = getelementptr inbounds %"class.cvc5::internal::prop::SatLiteral", ptr %this1, i32 0, i32 0
  %0 = load i64, ptr %d_value, align 8
  %and = and i64 %0, 1
  %tobool = icmp ne i64 %and, 0
  ret i1 %tobool
}

; Function Attrs: mustprogress nounwind uwtable
define linkonce_odr hidden noundef i64 @_ZNK4cvc58internal4prop10SatLiteral14getSatVariableEv(ptr noundef nonnull align 8 dereferenceable(8) %this) #4 comdat align 2 {
entry:
  %this.addr = alloca ptr, align 8
  store ptr %this, ptr %this.addr, align 8
  %this1 = load ptr, ptr %this.addr, align 8
  %d_value = getelementptr inbounds %"class.cvc5::internal::prop::SatLiteral", ptr %this1, i32 0, i32 0
  %0 = load i64, ptr %d_value, align 8
  %shr = lshr i64 %0, 1
  ret i64 %shr
}

; Function Attrs: mustprogress nounwind uwtable
define linkonce_odr hidden noundef zeroext i1 @_ZNK4cvc58internal4prop10SatLiteraleqERKS2_(ptr noundef nonnull align 8 dereferenceable(8) %this, ptr noundef nonnull align 8 dereferenceable(8) %other) #4 comdat align 2 {
entry:
  %this.addr = alloca ptr, align 8
  %other.addr = alloca ptr, align 8
  store ptr %this, ptr %this.addr, align 8
  store ptr %other, ptr %other.addr, align 8
  %this1 = load ptr, ptr %this.addr, align 8
  %d_value = getelementptr inbounds %"class.cvc5::internal::prop::SatLiteral", ptr %this1, i32 0, i32 0
  %0 = load i64, ptr %d_value, align 8
  %1 = load ptr, ptr %other.addr, align 8
  %d_value2 = getelementptr inbounds %"class.cvc5::internal::prop::SatLiteral", ptr %1, i32 0, i32 0
  %2 = load i64, ptr %d_value2, align 8
  %cmp = icmp eq i64 %0, %2
  ret i1 %cmp
}

; Function Attrs: mustprogress uwtable
define linkonce_odr hidden void @_ZN4cvc58internal7Minisat3vecINS1_3LitEE4pushERKS3_(ptr noundef nonnull align 8 dereferenceable(16) %this, ptr noundef nonnull align 4 dereferenceable(4) %elem) #5 comdat align 2 {
entry:
  %this.addr = alloca ptr, align 8
  %elem.addr = alloca ptr, align 8
  store ptr %this, ptr %this.addr, align 8
  store ptr %elem, ptr %elem.addr, align 8
  %this1 = load ptr, ptr %this.addr, align 8
  %sz = getelementptr inbounds %"class.cvc5::internal::Minisat::vec.280", ptr %this1, i32 0, i32 1
  %0 = load i32, ptr %sz, align 8
  %cap = getelementptr inbounds %"class.cvc5::internal::Minisat::vec.280", ptr %this1, i32 0, i32 2
  %1 = load i32, ptr %cap, align 4
  %cmp = icmp eq i32 %0, %1
  br i1 %cmp, label %if.then, label %if.end

if.then:                                          ; preds = %entry
  %sz2 = getelementptr inbounds %"class.cvc5::internal::Minisat::vec.280", ptr %this1, i32 0, i32 1
  %2 = load i32, ptr %sz2, align 8
  %add = add nsw i32 %2, 1
  call void @_ZN4cvc58internal7Minisat3vecINS1_3LitEE8capacityEi(ptr noundef nonnull align 8 dereferenceable(16) %this1, i32 noundef %add)
  br label %if.end

if.end:                                           ; preds = %if.then, %entry
  %3 = load ptr, ptr %elem.addr, align 8
  %data = getelementptr inbounds %"class.cvc5::internal::Minisat::vec.280", ptr %this1, i32 0, i32 0
  %4 = load ptr, ptr %data, align 8
  %sz3 = getelementptr inbounds %"class.cvc5::internal::Minisat::vec.280", ptr %this1, i32 0, i32 1
  %5 = load i32, ptr %sz3, align 8
  %inc = add nsw i32 %5, 1
  store i32 %inc, ptr %sz3, align 8
  %idxprom = sext i32 %5 to i64
  %arrayidx = getelementptr inbounds %"struct.cvc5::internal::Minisat::Lit", ptr %4, i64 %idxprom
  call void @llvm.memcpy.p0.p0.i64(ptr align 4 %arrayidx, ptr align 4 %3, i64 4, i1 false)
  ret void
}

; Function Attrs: mustprogress uwtable
define hidden i32 @_ZN4cvc58internal4prop16MinisatSatSolver12toMinisatLitENS1_10SatLiteralE(i64 %lit.coerce) #5 align 2 {
entry:
  %retval = alloca %"struct.cvc5::internal::Minisat::Lit", align 4
  %lit = alloca %"class.cvc5::internal::prop::SatLiteral", align 8
  %coerce.dive = getelementptr inbounds %"class.cvc5::internal::prop::SatLiteral", ptr %lit, i32 0, i32 0
  store i64 %lit.coerce, ptr %coerce.dive, align 8
  %call = call noundef zeroext i1 @_ZNK4cvc58internal4prop10SatLiteraleqERKS2_(ptr noundef nonnull align 8 dereferenceable(8) %lit, ptr noundef nonnull align 8 dereferenceable(8) @_ZN4cvc58internal4propL15undefSatLiteralE)
  br i1 %call, label %if.then, label %if.end

if.then:                                          ; preds = %entry
  call void @llvm.memcpy.p0.p0.i64(ptr align 4 %retval, ptr align 4 @_ZN4cvc58internal7MinisatL9lit_UndefE, i64 4, i1 false)
  br label %return

if.end:                                           ; preds = %entry
  %call1 = call noundef i64 @_ZNK4cvc58internal4prop10SatLiteral14getSatVariableEv(ptr noundef nonnull align 8 dereferenceable(8) %lit)
  %conv = trunc i64 %call1 to i32
  %call2 = call noundef zeroext i1 @_ZNK4cvc58internal4prop10SatLiteral9isNegatedEv(ptr noundef nonnull align 8 dereferenceable(8) %lit)
  %call3 = call i32 @_ZN4cvc58internal7Minisat5mkLitEib(i32 noundef %conv, i1 noundef zeroext %call2)
  %coerce.dive4 = getelementptr inbounds %"struct.cvc5::internal::Minisat::Lit", ptr %retval, i32 0, i32 0
  store i32 %call3, ptr %coerce.dive4, align 4
  br label %return

return:                                           ; preds = %if.end, %if.then
  %coerce.dive5 = getelementptr inbounds %"struct.cvc5::internal::Minisat::Lit", ptr %retval, i32 0, i32 0
  %0 = load i32, ptr %coerce.dive5, align 4
  ret i32 %0
}

; Function Attrs: mustprogress nounwind uwtable
define linkonce_odr hidden noundef nonnull align 8 dereferenceable(8) ptr @_ZNSt6vectorIN4cvc58internal4prop10SatLiteralESaIS3_EEixEm(ptr noundef nonnull align 8 dereferenceable(24) %this, i64 noundef %__n) #4 comdat align 2 {
entry:
  %this.addr = alloca ptr, align 8
  %__n.addr = alloca i64, align 8
  store ptr %this, ptr %this.addr, align 8
  store i64 %__n, ptr %__n.addr, align 8
  %this1 = load ptr, ptr %this.addr, align 8
  %_M_impl = getelementptr inbounds %"struct.std::_Vector_base", ptr %this1, i32 0, i32 0
  %_M_start = getelementptr inbounds %"struct.std::_Vector_base<cvc5::internal::prop::SatLiteral, std::allocator<cvc5::internal::prop::SatLiteral>>::_Vector_impl_data", ptr %_M_impl, i32 0, i32 0
  %0 = load ptr, ptr %_M_start, align 8
  %1 = load i64, ptr %__n.addr, align 8
  %add.ptr = getelementptr inbounds %"class.cvc5::internal::prop::SatLiteral", ptr %0, i64 %1
  ret ptr %add.ptr
}

; Function Attrs: mustprogress nounwind uwtable
define linkonce_odr hidden noundef i64 @_ZNKSt6vectorIN4cvc58internal4prop10SatLiteralESaIS3_EE4sizeEv(ptr noundef nonnull align 8 dereferenceable(24) %this) #4 comdat align 2 {
entry:
  %this.addr = alloca ptr, align 8
  store ptr %this, ptr %this.addr, align 8
  %this1 = load ptr, ptr %this.addr, align 8
  %_M_impl = getelementptr inbounds %"struct.std::_Vector_base", ptr %this1, i32 0, i32 0
  %_M_finish = getelementptr inbounds %"struct.std::_Vector_base<cvc5::internal::prop::SatLiteral, std::allocator<cvc5::internal::prop::SatLiteral>>::_Vector_impl_data", ptr %_M_impl, i32 0, i32 1
  %0 = load ptr, ptr %_M_finish, align 8
  %_M_impl2 = getelementptr inbounds %"struct.std::_Vector_base", ptr %this1, i32 0, i32 0
  %_M_start = getelementptr inbounds %"struct.std::_Vector_base<cvc5::internal::prop::SatLiteral, std::allocator<cvc5::internal::prop::SatLiteral>>::_Vector_impl_data", ptr %_M_impl2, i32 0, i32 0
  %1 = load ptr, ptr %_M_start, align 8
  %sub.ptr.lhs.cast = ptrtoint ptr %0 to i64
  %sub.ptr.rhs.cast = ptrtoint ptr %1 to i64
  %sub.ptr.sub = sub i64 %sub.ptr.lhs.cast, %sub.ptr.rhs.cast
  %sub.ptr.div = sdiv exact i64 %sub.ptr.sub, 8
  ret i64 %sub.ptr.div
}

; Function Attrs: mustprogress uwtable
define hidden void @_ZN4cvc58internal4prop16MinisatSatSolver15toMinisatClauseERSt6vectorINS1_10SatLiteralESaIS4_EERNS0_7Minisat3vecINS8_3LitEEE(ptr noundef nonnull align 8 dereferenceable(24) %clause, ptr noundef nonnull align 8 dereferenceable(16) %minisat_clause) #5 align 2 {
entry:
  %clause.addr = alloca ptr, align 8
  %minisat_clause.addr = alloca ptr, align 8
  %i = alloca i32, align 4
  %ref.tmp = alloca %"struct.cvc5::internal::Minisat::Lit", align 4
  %agg.tmp = alloca %"class.cvc5::internal::prop::SatLiteral", align 8
  store ptr %clause, ptr %clause.addr, align 8
  store ptr %minisat_clause, ptr %minisat_clause.addr, align 8
  store i32 0, ptr %i, align 4
  br label %for.cond

for.cond:                                         ; preds = %for.inc, %entry
  %0 = load i32, ptr %i, align 4
  %conv = zext i32 %0 to i64
  %1 = load ptr, ptr %clause.addr, align 8
  %call = call noundef i64 @_ZNKSt6vectorIN4cvc58internal4prop10SatLiteralESaIS3_EE4sizeEv(ptr noundef nonnull align 8 dereferenceable(24) %1) #3
  %cmp = icmp ult i64 %conv, %call
  br i1 %cmp, label %for.body, label %for.end

for.body:                                         ; preds = %for.cond
  %2 = load ptr, ptr %minisat_clause.addr, align 8
  %3 = load ptr, ptr %clause.addr, align 8
  %4 = load i32, ptr %i, align 4
  %conv1 = zext i32 %4 to i64
  %call2 = call noundef nonnull align 8 dereferenceable(8) ptr @_ZNSt6vectorIN4cvc58internal4prop10SatLiteralESaIS3_EEixEm(ptr noundef nonnull align 8 dereferenceable(24) %3, i64 noundef %conv1) #3
  call void @llvm.memcpy.p0.p0.i64(ptr align 8 %agg.tmp, ptr align 8 %call2, i64 8, i1 false)
  %coerce.dive = getelementptr inbounds %"class.cvc5::internal::prop::SatLiteral", ptr %agg.tmp, i32 0, i32 0
  %5 = load i64, ptr %coerce.dive, align 8
  %call3 = call i32 @_ZN4cvc58internal4prop16MinisatSatSolver12toMinisatLitENS1_10SatLiteralE(i64 %5)
  %coerce.dive4 = getelementptr inbounds %"struct.cvc5::internal::Minisat::Lit", ptr %ref.tmp, i32 0, i32 0
  store i32 %call3, ptr %coerce.dive4, align 4
  call void @_ZN4cvc58internal7Minisat3vecINS1_3LitEE4pushERKS3_(ptr noundef nonnull align 8 dereferenceable(16) %2, ptr noundef nonnull align 4 dereferenceable(4) %ref.tmp)
  br label %for.inc

for.inc:                                          ; preds = %for.body
  %6 = load i32, ptr %i, align 4
  %inc = add i32 %6, 1
  store i32 %inc, ptr %i, align 4
  br label %for.cond, !llvm.loop !4

for.end:                                          ; preds = %for.cond
  ret void
}