; Function Attrs: mustprogress uwtable
define hidden void @_ZN4cvc58internal4prop16MinisatSatSolver15toMinisatClauseERSt6vectorINS1_10SatLiteralESaIS4_EERNS0_7Minisat3vecINS8_3LitEEE(ptr nocapture noundef nonnull readonly align 8 dereferenceable(24) %clause, ptr nocapture noundef nonnull align 8 dereferenceable(16) %minisat_clause) local_unnamed_addr #3 align 2 {
entry:
  %_M_finish.i = getelementptr inbounds i8, ptr %clause, i64 8
  %0 = load ptr, ptr %_M_finish.i, align 8
  %1 = load ptr, ptr %clause, align 8
  %cmp8.not = icmp eq ptr %0, %1
  br i1 %cmp8.not, label %for.end, label %for.body.lr.ph

for.body.lr.ph:                                   ; preds = %entry
  %sz.i = getelementptr inbounds i8, ptr %minisat_clause, i64 8
  %cap.i = getelementptr inbounds i8, ptr %minisat_clause, i64 12
  %.b = load i1, ptr @_ZN4cvc58internal4propL15undefSatLiteralE.0, align 8
  %2 = select i1 %.b, i64 -2, i64 0
  br label %for.body

for.body:                                         ; preds = %for.body.lr.ph, %_ZN4cvc58internal7Minisat3vecINS1_3LitEE4pushERKS3_.exit
  %3 = phi ptr [ %1, %for.body.lr.ph ], [ %13, %_ZN4cvc58internal7Minisat3vecINS1_3LitEE4pushERKS3_.exit ]
  %conv10 = phi i64 [ 0, %for.body.lr.ph ], [ %conv, %_ZN4cvc58internal7Minisat3vecINS1_3LitEE4pushERKS3_.exit ]
  %i.09 = phi i32 [ 0, %for.body.lr.ph ], [ %inc, %_ZN4cvc58internal7Minisat3vecINS1_3LitEE4pushERKS3_.exit ]
  %add.ptr.i = getelementptr inbounds %"class.cvc5::internal::prop::SatLiteral", ptr %3, i64 %conv10
  %agg.tmp.sroa.0.0.copyload = load i64, ptr %add.ptr.i, align 8
  %cmp.i.i = icmp eq i64 %2, %agg.tmp.sroa.0.0.copyload
  %tr.sh.diff.i = trunc i64 %agg.tmp.sroa.0.0.copyload to i32
  %retval.sroa.0.0.i = select i1 %cmp.i.i, i32 -2, i32 %tr.sh.diff.i
  %4 = load i32, ptr %sz.i, align 8
  %5 = load i32, ptr %cap.i, align 4
  %cmp.i = icmp eq i32 %4, %5
  br i1 %cmp.i, label %if.end.i.i, label %entry.if.end_crit_edge.i

entry.if.end_crit_edge.i:                         ; preds = %for.body
  %.pre.i = load ptr, ptr %minisat_clause, align 8
  br label %_ZN4cvc58internal7Minisat3vecINS1_3LitEE4pushERKS3_.exit

if.end.i.i:                                       ; preds = %for.body
  %shr.i.i = ashr i32 %4, 1
  %6 = and i32 %shr.i.i, -2
  %7 = tail call i32 @llvm.smax.i32(i32 %6, i32 0)
  %add.i.i.i = add nuw nsw i32 %7, 2
  %sub8.i.i = sub nsw i32 2147483647, %4
  %cmp9.i.i = icmp ugt i32 %add.i.i.i, %sub8.i.i
  br i1 %cmp9.i.i, label %if.then17.i.i, label %lor.lhs.false.i.i

lor.lhs.false.i.i:                                ; preds = %if.end.i.i
  %8 = load ptr, ptr %minisat_clause, align 8
  %add11.i.i = add nsw i32 %add.i.i.i, %4
  store i32 %add11.i.i, ptr %cap.i, align 4
  %conv.i.i = sext i32 %add11.i.i to i64
  %mul.i.i = shl nsw i64 %conv.i.i, 2
  %call12.i.i = tail call ptr @realloc(ptr noundef %8, i64 noundef %mul.i.i) #29
  store ptr %call12.i.i, ptr %minisat_clause, align 8
  %cmp14.i.i = icmp eq ptr %call12.i.i, null
  br i1 %cmp14.i.i, label %land.lhs.true.i.i, label %lor.lhs.false.i.i._ZN4cvc58internal7Minisat3vecINS1_3LitEE4pushERKS3_.exit_crit_edge

lor.lhs.false.i.i._ZN4cvc58internal7Minisat3vecINS1_3LitEE4pushERKS3_.exit_crit_edge: ; preds = %lor.lhs.false.i.i
  %.pre = load i32, ptr %sz.i, align 8
  br label %_ZN4cvc58internal7Minisat3vecINS1_3LitEE4pushERKS3_.exit

land.lhs.true.i.i:                                ; preds = %lor.lhs.false.i.i
  %call15.i.i = tail call ptr @__errno_location() #30
  %9 = load i32, ptr %call15.i.i, align 4
  %cmp16.i.i = icmp eq i32 %9, 12
  tail call void @llvm.assume(i1 %cmp16.i.i)
  br label %if.then17.i.i

if.then17.i.i:                                    ; preds = %if.end.i.i, %land.lhs.true.i.i
  %exception.i.i = tail call ptr @__cxa_allocate_exception(i64 1) #26
  tail call void @__cxa_throw(ptr %exception.i.i, ptr nonnull @_ZTIN4cvc58internal7Minisat20OutOfMemoryExceptionE, ptr null) #31
  unreachable

_ZN4cvc58internal7Minisat3vecINS1_3LitEE4pushERKS3_.exit: ; preds = %lor.lhs.false.i.i._ZN4cvc58internal7Minisat3vecINS1_3LitEE4pushERKS3_.exit_crit_edge, %entry.if.end_crit_edge.i
  %10 = phi i32 [ %4, %entry.if.end_crit_edge.i ], [ %.pre, %lor.lhs.false.i.i._ZN4cvc58internal7Minisat3vecINS1_3LitEE4pushERKS3_.exit_crit_edge ]
  %11 = phi ptr [ %.pre.i, %entry.if.end_crit_edge.i ], [ %call12.i.i, %lor.lhs.false.i.i._ZN4cvc58internal7Minisat3vecINS1_3LitEE4pushERKS3_.exit_crit_edge ]
  %inc.i = add nsw i32 %10, 1
  store i32 %inc.i, ptr %sz.i, align 8
  %idxprom.i = sext i32 %10 to i64
  %arrayidx.i = getelementptr inbounds %"struct.cvc5::internal::Minisat::Lit", ptr %11, i64 %idxprom.i
  store i32 %retval.sroa.0.0.i, ptr %arrayidx.i, align 4
  %inc = add i32 %i.09, 1
  %conv = zext i32 %inc to i64
  %12 = load ptr, ptr %_M_finish.i, align 8
  %13 = load ptr, ptr %clause, align 8
  %sub.ptr.lhs.cast.i = ptrtoint ptr %12 to i64
  %sub.ptr.rhs.cast.i = ptrtoint ptr %13 to i64
  %sub.ptr.sub.i = sub i64 %sub.ptr.lhs.cast.i, %sub.ptr.rhs.cast.i
  %sub.ptr.div.i = ashr exact i64 %sub.ptr.sub.i, 3
  %cmp = icmp ugt i64 %sub.ptr.div.i, %conv
  br i1 %cmp, label %for.body, label %for.end, !llvm.loop !6

for.end:                                          ; preds = %_ZN4cvc58internal7Minisat3vecINS1_3LitEE4pushERKS3_.exit, %entry
  ret void
}